; Function Attrs: mustprogress nounwind uwtable
define dso_local void @_ZN3igl10random_dirEv(ptr dead_on_unwind noalias writable writeonly sret(%"class.Eigen::Matrix") align 8 captures(none) initializes((0, 24)) %0) local_unnamed_addr #0 {
  %2 = tail call i32 @rand() #11
  %3 = sitofp i32 %2 to double
  %4 = fdiv double %3, 0x41DFFFFFFFC00000
  %5 = tail call double @llvm.fmuladd.f64(double %4, double 2.000000e+00, double -1.000000e+00)
  %6 = tail call i32 @rand() #11
  %7 = sitofp i32 %6 to double
  %8 = fdiv double %7, 0x41DFFFFFFFC00000
  %9 = fmul double %8, 2.000000e+00
  %10 = fmul double %9, 0x400921FB54442D18
  %11 = fneg double %5
  %12 = tail call double @llvm.fmuladd.f64(double %11, double %5, double 1.000000e+00)
  %13 = tail call double @sqrt(double noundef %12) #11, !tbaa !4
  %14 = tail call double @cos(double noundef %10) #11, !tbaa !4
  %15 = fmul double %13, %14
  %16 = tail call double @sin(double noundef %10) #11, !tbaa !4
  %17 = fmul double %13, %16
  store double %15, ptr %0, align 8, !tbaa !8
  %18 = getelementptr inbounds nuw i8, ptr %0, i64 8
  store double %17, ptr %18, align 8, !tbaa !8
  %19 = getelementptr inbounds nuw i8, ptr %0, i64 16
  store double %5, ptr %19, align 8, !tbaa !8
  ret void
}